; ModuleID = 'source-C-CXX/53/696.cpp'
source_filename = "source-C-CXX/53/696.cpp"
target datalayout = "e-m:e-p270:32:32-p271:32:32-p272:64:64-i64:64-f80:128-n8:16:32:64-S128"
target triple = "x86_64-pc-linux-gnu"

%"class.std::ios_base::Init" = type { i8 }
%"class.std::basic_istream" = type { i32 (...)**, i64, %"class.std::basic_ios" }
%"class.std::basic_ios" = type { %"class.std::ios_base", %"class.std::basic_ostream"*, i8, i8, %"class.std::basic_streambuf"*, %"class.std::ctype"*, %"class.std::num_put"*, %"class.std::num_get"* }
%"class.std::ios_base" = type { i32 (...)**, i64, i64, i32, i32, i32, %"struct.std::ios_base::_Callback_list"*, %"struct.std::ios_base::_Words", [8 x %"struct.std::ios_base::_Words"], i32, %"struct.std::ios_base::_Words"*, %"class.std::locale" }
%"struct.std::ios_base::_Callback_list" = type { %"struct.std::ios_base::_Callback_list"*, void (i32, %"class.std::ios_base"*, i32)*, i32, i32 }
%"struct.std::ios_base::_Words" = type { i8*, i64 }
%"class.std::locale" = type { %"class.std::locale::_Impl"* }
%"class.std::locale::_Impl" = type { i32, %"class.std::locale::facet"**, i64, %"class.std::locale::facet"**, i8** }
%"class.std::locale::facet" = type <{ i32 (...)**, i32, [4 x i8] }>
%"class.std::basic_ostream" = type { i32 (...)**, %"class.std::basic_ios" }
%"class.std::basic_streambuf" = type { i32 (...)**, i8*, i8*, i8*, i8*, i8*, i8*, %"class.std::locale" }
%"class.std::ctype" = type <{ %"class.std::locale::facet.base", [4 x i8], %struct.__locale_struct*, i8, [7 x i8], i32*, i32*, i16*, i8, [256 x i8], [256 x i8], i8, [6 x i8] }>
%"class.std::locale::facet.base" = type <{ i32 (...)**, i32 }>
%struct.__locale_struct = type { [13 x %struct.__locale_data*], i16*, i32*, i32*, [13 x i8*] }
%struct.__locale_data = type opaque
%"class.std::num_put" = type { %"class.std::locale::facet.base", [4 x i8] }
%"class.std::num_get" = type { %"class.std::locale::facet.base", [4 x i8] }

@_ZStL8__ioinit = internal global %"class.std::ios_base::Init" zeroinitializer, align 1
@__dso_handle = external hidden global i8
@_ZSt3cin = external global %"class.std::basic_istream", align 8
@_ZSt4cout = external global %"class.std::basic_ostream", align 8
@llvm.global_ctors = appending global [1 x { i32, void ()*, i8* }] [{ i32, void ()*, i8* } { i32 65535, void ()* @_GLOBAL__sub_I_696.cpp, i8* null }]

declare void @_ZNSt8ios_base4InitC1Ev(%"class.std::ios_base::Init"* nonnull align 1 dereferenceable(1)) unnamed_addr #0

; Function Attrs: nounwind
declare void @_ZNSt8ios_base4InitD1Ev(%"class.std::ios_base::Init"* nonnull align 1 dereferenceable(1)) unnamed_addr #1

; Function Attrs: nofree nounwind
declare i32 @__cxa_atexit(void (i8*)*, i8*, i8*) local_unnamed_addr #2

; Function Attrs: mustprogress norecurse sspstrong uwtable
define dso_local i32 @main() local_unnamed_addr #3 {
  %1 = alloca i32, align 4
  %2 = alloca i32, align 4
  %3 = bitcast i32* %1 to i8*
  call void @llvm.lifetime.start.p0i8(i64 4, i8* nonnull %3) #7
  %4 = bitcast i32* %2 to i8*
  call void @llvm.lifetime.start.p0i8(i64 4, i8* nonnull %4) #7
  %5 = call nonnull align 8 dereferenceable(16) %"class.std::basic_istream"* @_ZNSirsERi(%"class.std::basic_istream"* nonnull align 8 dereferenceable(16) @_ZSt3cin, i32* nonnull align 4 dereferenceable(4) %1)
  %6 = call nonnull align 8 dereferenceable(16) %"class.std::basic_istream"* @_ZNSirsERi(%"class.std::basic_istream"* nonnull align 8 dereferenceable(16) %5, i32* nonnull align 4 dereferenceable(4) %2)
  %7 = load i32, i32* %1, align 4, !tbaa !5
  %8 = load i32, i32* %2, align 4
  %9 = add nsw i32 %8, %7
  %10 = add nsw i32 %7, -1
  %11 = icmp sgt i32 %7, 0
  br i1 %11, label %12, label %29

12:                                               ; preds = %0, %27
  %13 = phi i32 [ %28, %27 ], [ 1, %0 ]
  br label %14

14:                                               ; preds = %22, %12
  %15 = phi i32 [ 0, %12 ], [ %25, %22 ]
  %16 = phi i32 [ %13, %12 ], [ %24, %22 ]
  %17 = sub nsw i32 %16, %8
  %18 = srem i32 %17, %7
  %19 = icmp ne i32 %18, 0
  %20 = icmp slt i32 %16, %9
  %21 = select i1 %19, i1 true, i1 %20
  br i1 %21, label %27, label %22

22:                                               ; preds = %14
  %23 = mul nsw i32 %17, %10
  %24 = sdiv i32 %23, %7
  %25 = add nuw nsw i32 %15, 1
  %26 = icmp eq i32 %25, %7
  br i1 %26, label %29, label %14, !llvm.loop !9

27:                                               ; preds = %14
  %28 = add nuw nsw i32 %13, 1
  br label %12

29:                                               ; preds = %22, %0
  %30 = phi i32 [ 1, %0 ], [ %13, %22 ]
  %31 = call nonnull align 8 dereferenceable(8) %"class.std::basic_ostream"* @_ZNSolsEi(%"class.std::basic_ostream"* nonnull align 8 dereferenceable(8) @_ZSt4cout, i32 %30)
  %32 = bitcast %"class.std::basic_ostream"* %31 to i8**
  %33 = load i8*, i8** %32, align 8, !tbaa !11
  %34 = getelementptr i8, i8* %33, i64 -24
  %35 = bitcast i8* %34 to i64*
  %36 = load i64, i64* %35, align 8
  %37 = bitcast %"class.std::basic_ostream"* %31 to i8*
  %38 = add nsw i64 %36, 240
  %39 = getelementptr inbounds i8, i8* %37, i64 %38
  %40 = bitcast i8* %39 to %"class.std::ctype"**
  %41 = load %"class.std::ctype"*, %"class.std::ctype"** %40, align 8, !tbaa !13
  %42 = icmp eq %"class.std::ctype"* %41, null
  br i1 %42, label %43, label %44

43:                                               ; preds = %29
  call void @_ZSt16__throw_bad_castv() #8
  unreachable

44:                                               ; preds = %29
  %45 = getelementptr inbounds %"class.std::ctype", %"class.std::ctype"* %41, i64 0, i32 8
  %46 = load i8, i8* %45, align 8, !tbaa !17
  %47 = icmp eq i8 %46, 0
  br i1 %47, label %51, label %48

48:                                               ; preds = %44
  %49 = getelementptr inbounds %"class.std::ctype", %"class.std::ctype"* %41, i64 0, i32 9, i64 10
  %50 = load i8, i8* %49, align 1, !tbaa !19
  br label %57

51:                                               ; preds = %44
  call void @_ZNKSt5ctypeIcE13_M_widen_initEv(%"class.std::ctype"* nonnull align 8 dereferenceable(570) %41)
  %52 = bitcast %"class.std::ctype"* %41 to i8 (%"class.std::ctype"*, i8)***
  %53 = load i8 (%"class.std::ctype"*, i8)**, i8 (%"class.std::ctype"*, i8)*** %52, align 8, !tbaa !11
  %54 = getelementptr inbounds i8 (%"class.std::ctype"*, i8)*, i8 (%"class.std::ctype"*, i8)** %53, i64 6
  %55 = load i8 (%"class.std::ctype"*, i8)*, i8 (%"class.std::ctype"*, i8)** %54, align 8
  %56 = call signext i8 %55(%"class.std::ctype"* nonnull align 8 dereferenceable(570) %41, i8 signext 10)
  br label %57

57:                                               ; preds = %48, %51
  %58 = phi i8 [ %50, %48 ], [ %56, %51 ]
  %59 = call nonnull align 8 dereferenceable(8) %"class.std::basic_ostream"* @_ZNSo3putEc(%"class.std::basic_ostream"* nonnull align 8 dereferenceable(8) %31, i8 signext %58)
  %60 = call nonnull align 8 dereferenceable(8) %"class.std::basic_ostream"* @_ZNSo5flushEv(%"class.std::basic_ostream"* nonnull align 8 dereferenceable(8) %59)
  call void @llvm.lifetime.end.p0i8(i64 4, i8* nonnull %4) #7
  call void @llvm.lifetime.end.p0i8(i64 4, i8* nonnull %3) #7
  ret i32 0
}

; Function Attrs: argmemonly mustprogress nofree nosync nounwind willreturn
declare void @llvm.lifetime.start.p0i8(i64 immarg, i8* nocapture) #4

declare nonnull align 8 dereferenceable(16) %"class.std::basic_istream"* @_ZNSirsERi(%"class.std::basic_istream"* nonnull align 8 dereferenceable(16), i32* nonnull align 4 dereferenceable(4)) local_unnamed_addr #0

; Function Attrs: argmemonly mustprogress nofree nosync nounwind willreturn
declare void @llvm.lifetime.end.p0i8(i64 immarg, i8* nocapture) #4

declare nonnull align 8 dereferenceable(8) %"class.std::basic_ostream"* @_ZNSolsEi(%"class.std::basic_ostream"* nonnull align 8 dereferenceable(8), i32) local_unnamed_addr #0

declare nonnull align 8 dereferenceable(8) %"class.std::basic_ostream"* @_ZNSo3putEc(%"class.std::basic_ostream"* nonnull align 8 dereferenceable(8), i8 signext) local_unnamed_addr #0

declare nonnull align 8 dereferenceable(8) %"class.std::basic_ostream"* @_ZNSo5flushEv(%"class.std::basic_ostream"* nonnull align 8 dereferenceable(8)) local_unnamed_addr #0

; Function Attrs: noreturn
declare void @_ZSt16__throw_bad_castv() local_unnamed_addr #5

declare void @_ZNKSt5ctypeIcE13_M_widen_initEv(%"class.std::ctype"* nonnull align 8 dereferenceable(570)) local_unnamed_addr #0

; Function Attrs: sspstrong uwtable
define internal void @_GLOBAL__sub_I_696.cpp() #6 section ".text.startup" {
  tail call void @_ZNSt8ios_base4InitC1Ev(%"class.std::ios_base::Init"* nonnull align 1 dereferenceable(1) @_ZStL8__ioinit)
  %1 = tail call i32 @__cxa_atexit(void (i8*)* bitcast (void (%"class.std::ios_base::Init"*)* @_ZNSt8ios_base4InitD1Ev to void (i8*)*), i8* getelementptr inbounds (%"class.std::ios_base::Init", %"class.std::ios_base::Init"* @_ZStL8__ioinit, i64 0, i32 0), i8* nonnull @__dso_handle) #7
  ret void
}


!llvm.module.flags = !{!0, !1, !2, !3}
!llvm.ident = !{!4}

!0 = !{i32 1, !"wchar_size", i32 4}
!1 = !{i32 7, !"PIC Level", i32 2}
!2 = !{i32 7, !"PIE Level", i32 2}
!3 = !{i32 7, !"uwtable", i32 1}
!4 = !{!"clang version 13.0.0"}
!5 = !{!6, !6, i64 0}
!6 = !{!"int", !7, i64 0}
!7 = !{!"omnipotent char", !8, i64 0}
!8 = !{!"Simple C++ TBAA"}
!9 = distinct !{!9, !10}
!10 = !{!"llvm.loop.mustprogress"}
!11 = !{!12, !12, i64 0}
!12 = !{!"vtable pointer", !8, i64 0}
!13 = !{!14, !15, i64 240}
!14 = !{!"_ZTSSt9basic_iosIcSt11char_traitsIcEE", !15, i64 216, !7, i64 224, !16, i64 225, !15, i64 232, !15, i64 240, !15, i64 248, !15, i64 256}
!15 = !{!"any pointer", !7, i64 0}
!16 = !{!"bool", !7, i64 0}
!17 = !{!18, !7, i64 56}
!18 = !{!"_ZTSSt5ctypeIcE", !15, i64 16, !16, i64 24, !15, i64 32, !15, i64 40, !15, i64 48, !7, i64 56, !7, i64 57, !7, i64 313, !7, i64 569}
!19 = !{!7, !7, i64 0}
